target datalayout = "e-m:e-p270:32:32-p271:32:32-p272:64:64-i64:64-i128:128-f80:128-n8:16:32:64-S128"
target triple = "x86_64-pc-linux-gnu"

%struct.DdNode = type { i32, i32, ptr, %union.anon, i64 }
%union.anon = type { %struct.DdChildren }
%struct.DdChildren = type { ptr, ptr }

; Function Attrs: nounwind uwtable
define ptr @Cudd_Eval(ptr noundef %0, ptr noundef %1, ptr noundef %2) #0 {
  %4 = alloca ptr, align 8
  %5 = alloca ptr, align 8
  %6 = alloca ptr, align 8
  %7 = alloca i32, align 4
  %8 = alloca ptr, align 8
  store ptr %0, ptr %4, align 8, !tbaa !3
  store ptr %1, ptr %5, align 8, !tbaa !8
  store ptr %2, ptr %6, align 8, !tbaa !10
  call void @llvm.lifetime.start.p0(i64 4, ptr %7) #6
  call void @llvm.lifetime.start.p0(i64 8, ptr %8) #6
  %9 = load ptr, ptr %5, align 8, !tbaa !8
  %10 = ptrtoint ptr %9 to i64
  %11 = and i64 %10, 1
  %12 = trunc i64 %11 to i32
  store i32 %12, ptr %7, align 4, !tbaa !12
  %13 = load ptr, ptr %5, align 8, !tbaa !8
  %14 = ptrtoint ptr %13 to i64
  %15 = and i64 %14, -2
  %16 = inttoptr i64 %15 to ptr
  store ptr %16, ptr %8, align 8, !tbaa !8
  br label %17

17:                                               ; preds = %54, %3
  %18 = load ptr, ptr %8, align 8, !tbaa !8
  %19 = getelementptr inbounds nuw %struct.DdNode, ptr %18, i32 0, i32 0
  %20 = load i32, ptr %19, align 8, !tbaa !14
  %21 = icmp eq i32 %20, 2147483647
  %22 = xor i1 %21, true
  br i1 %22, label %23, label %55

23:                                               ; preds = %17
  %24 = load ptr, ptr %6, align 8, !tbaa !10
  %25 = load ptr, ptr %8, align 8, !tbaa !8
  %26 = getelementptr inbounds nuw %struct.DdNode, ptr %25, i32 0, i32 0
  %27 = load i32, ptr %26, align 8, !tbaa !14
  %28 = zext i32 %27 to i64
  %29 = getelementptr inbounds nuw i32, ptr %24, i64 %28
  %30 = load i32, ptr %29, align 4, !tbaa !12
  %31 = icmp eq i32 %30, 1
  br i1 %31, label %32, label %37

32:                                               ; preds = %23
  %33 = load ptr, ptr %8, align 8, !tbaa !8
  %34 = getelementptr inbounds nuw %struct.DdNode, ptr %33, i32 0, i32 3
  %35 = getelementptr inbounds nuw %struct.DdChildren, ptr %34, i32 0, i32 0
  %36 = load ptr, ptr %35, align 8, !tbaa !17
  store ptr %36, ptr %8, align 8, !tbaa !8
  br label %54

37:                                               ; preds = %23
  %38 = load ptr, ptr %8, align 8, !tbaa !8
  %39 = getelementptr inbounds nuw %struct.DdNode, ptr %38, i32 0, i32 3
  %40 = getelementptr inbounds nuw %struct.DdChildren, ptr %39, i32 0, i32 1
  %41 = load ptr, ptr %40, align 8, !tbaa !17
  %42 = ptrtoint ptr %41 to i64
  %43 = and i64 %42, 1
  %44 = trunc i64 %43 to i32
  %45 = load i32, ptr %7, align 4, !tbaa !12
  %46 = xor i32 %45, %44
  store i32 %46, ptr %7, align 4, !tbaa !12
  %47 = load ptr, ptr %8, align 8, !tbaa !8
  %48 = getelementptr inbounds nuw %struct.DdNode, ptr %47, i32 0, i32 3
  %49 = getelementptr inbounds nuw %struct.DdChildren, ptr %48, i32 0, i32 1
  %50 = load ptr, ptr %49, align 8, !tbaa !17
  %51 = ptrtoint ptr %50 to i64
  %52 = and i64 %51, -2
  %53 = inttoptr i64 %52 to ptr
  store ptr %53, ptr %8, align 8, !tbaa !8
  br label %54

54:                                               ; preds = %37, %32
  br label %17, !llvm.loop !18

55:                                               ; preds = %17
  %56 = load ptr, ptr %8, align 8, !tbaa !8
  %57 = ptrtoint ptr %56 to i64
  %58 = load i32, ptr %7, align 4, !tbaa !12
  %59 = sext i32 %58 to i64
  %60 = xor i64 %57, %59
  %61 = inttoptr i64 %60 to ptr
  call void @llvm.lifetime.end.p0(i64 8, ptr %8) #6
  call void @llvm.lifetime.end.p0(i64 4, ptr %7) #6
  ret ptr %61
}