; Function Attrs: nofree norecurse nosync nounwind memory(read, inaccessiblemem: none) uwtable
define ptr @Cudd_Eval(ptr noundef readnone captures(none) %0, ptr noundef %1, ptr noundef readonly captures(none) %2) local_unnamed_addr #0 {
  %4 = ptrtoint ptr %1 to i64
  %5 = trunc i64 %4 to i32
  %6 = and i32 %5, 1
  %7 = and i64 %4, -2
  %8 = inttoptr i64 %7 to ptr
  %9 = load i32, ptr %8, align 8, !tbaa !3
  %.not12 = icmp eq i32 %9, 2147483647
  br i1 %.not12, label %._crit_edge, label %.lr.ph

.lr.ph:                                           ; preds = %3, %27
  %10 = phi i32 [ %28, %27 ], [ %9, %3 ]
  %.014 = phi ptr [ %.1, %27 ], [ %8, %3 ]
  %.01013 = phi i32 [ %.111, %27 ], [ %6, %3 ]
  %11 = zext i32 %10 to i64
  %12 = getelementptr inbounds nuw i32, ptr %2, i64 %11
  %13 = load i32, ptr %12, align 4, !tbaa !11
  %14 = icmp eq i32 %13, 1
  br i1 %14, label %15, label %18

15:                                               ; preds = %.lr.ph
  %16 = getelementptr inbounds nuw i8, ptr %.014, i64 16
  %17 = load ptr, ptr %16, align 8, !tbaa !12
  br label %27

18:                                               ; preds = %.lr.ph
  %19 = getelementptr inbounds nuw i8, ptr %.014, i64 24
  %20 = load ptr, ptr %19, align 8, !tbaa !12
  %21 = ptrtoint ptr %20 to i64
  %22 = trunc i64 %21 to i32
  %23 = and i32 %22, 1
  %24 = xor i32 %23, %.01013
  %25 = and i64 %21, -2
  %26 = inttoptr i64 %25 to ptr
  br label %27

27:                                               ; preds = %18, %15
  %.111 = phi i32 [ %.01013, %15 ], [ %24, %18 ]
  %.1 = phi ptr [ %17, %15 ], [ %26, %18 ]
  %28 = load i32, ptr %.1, align 8, !tbaa !3
  %.not = icmp eq i32 %28, 2147483647
  br i1 %.not, label %._crit_edge.loopexit, label %.lr.ph, !llvm.loop !13

._crit_edge.loopexit:                             ; preds = %27
  %29 = ptrtoint ptr %.1 to i64
  br label %._crit_edge

._crit_edge:                                      ; preds = %._crit_edge.loopexit, %3
  %.010.lcssa = phi i32 [ %6, %3 ], [ %.111, %._crit_edge.loopexit ]
  %.0.lcssa = phi i64 [ %7, %3 ], [ %29, %._crit_edge.loopexit ]
  %30 = zext nneg i32 %.010.lcssa to i64
  %31 = xor i64 %.0.lcssa, %30
  %32 = inttoptr i64 %31 to ptr
  ret ptr %32
}